; Function Attrs: mustprogress uwtable
define void @_ZN8nanobind12python_errorC2Ev(ptr noundef nonnull align 8 dereferenceable(40) initializes((0, 40)) %0) unnamed_addr #2 align 2 personality ptr @__gxx_personality_v0 {
  store ptr getelementptr inbounds nuw inrange(-16, 24) (i8, ptr @_ZTVN8nanobind12python_errorE, i64 16), ptr %0, align 8
  %2 = getelementptr inbounds nuw i8, ptr %0, i64 8
  %3 = getelementptr inbounds nuw i8, ptr %0, i64 16
  %4 = getelementptr inbounds nuw i8, ptr %0, i64 24
  tail call void @llvm.memset.p0.i64(ptr noundef nonnull align 8 dereferenceable(32) %2, i8 0, i64 32, i1 false)
  invoke void @PyErr_Fetch(ptr noundef nonnull %2, ptr noundef nonnull %3, ptr noundef nonnull %4)
          to label %5 unwind label %8

5:                                                ; preds = %1
  %6 = load ptr, ptr %2, align 8
  %.not = icmp eq ptr %6, null
  br i1 %.not, label %7, label %10, !prof !3

7:                                                ; preds = %5
  tail call void @_ZN8nanobind6detail16fail_unspecifiedEv() #27
  unreachable

8:                                                ; preds = %1
  %9 = landingpad { ptr, i32 }
          cleanup
  tail call void @_ZNSt9exceptionD2Ev(ptr noundef nonnull align 8 dereferenceable(8) %0) #26
  resume { ptr, i32 } %9

10:                                               ; preds = %5
  ret void
}